target datalayout = "e-m:e-p270:32:32-p271:32:32-p272:64:64-i64:64-i128:128-f80:128-n8:16:32:64-S128"
target triple = "x86_64-pc-linux-gnu"

%union.Value = type { ptr }
%struct.lua_State = type { ptr, i8, i8, i8, ptr, ptr, ptr, ptr, ptr, ptr, ptr, ptr, ptr, i32, i32, i16, i16, i8, i8, i32, i32, ptr, %struct.lua_TValue, %struct.lua_TValue, ptr, ptr, ptr, i64 }
%struct.lua_TValue = type { %union.Value, i32 }
%struct.global_State = type { %struct.stringtable, ptr, ptr, i8, i8, i32, ptr, ptr, ptr, ptr, ptr, ptr, %struct.Mbuffer, i64, i64, i64, i64, i32, i32, ptr, %struct.lua_TValue, ptr, %struct.UpVal, [9 x ptr], [17 x ptr] }
%struct.stringtable = type { ptr, i32, i32 }
%struct.Mbuffer = type { ptr, i64, i64 }
%struct.UpVal = type { ptr, i8, i8, ptr, %union.anon }
%union.anon = type { %struct.lua_TValue }
%struct.lua_longjmp = type { ptr, [1 x %struct.__jmp_buf_tag], i32 }
%struct.__jmp_buf_tag = type { [8 x i64], i32, %struct.__sigset_t }
%struct.__sigset_t = type { [16 x i64] }
%struct.Table = type { ptr, i8, i8, i8, i8, ptr, ptr, ptr, ptr, ptr, i32 }

@.str.5 = private unnamed_addr constant [39 x i8] c"memory allocation error: block too big\00", align 1

; Function Attrs: nounwind uwtable
define internal void @luaD_throw(ptr noundef %0, i32 noundef %1) #0 {
  %3 = alloca ptr, align 8
  %4 = alloca i32, align 4
  store ptr %0, ptr %3, align 8, !tbaa !11
  store i32 %1, ptr %4, align 4, !tbaa !4
  %5 = load ptr, ptr %3, align 8, !tbaa !11
  %6 = getelementptr inbounds nuw %struct.lua_State, ptr %5, i32 0, i32 26
  %7 = load ptr, ptr %6, align 8, !tbaa !101
  %8 = icmp ne ptr %7, null
  br i1 %8, label %9, label %20

9:                                                ; preds = %2
  %10 = load i32, ptr %4, align 4, !tbaa !4
  %11 = load ptr, ptr %3, align 8, !tbaa !11
  %12 = getelementptr inbounds nuw %struct.lua_State, ptr %11, i32 0, i32 26
  %13 = load ptr, ptr %12, align 8, !tbaa !101
  %14 = getelementptr inbounds nuw %struct.lua_longjmp, ptr %13, i32 0, i32 2
  store volatile i32 %10, ptr %14, align 8, !tbaa !112
  %15 = load ptr, ptr %3, align 8, !tbaa !11
  %16 = getelementptr inbounds nuw %struct.lua_State, ptr %15, i32 0, i32 26
  %17 = load ptr, ptr %16, align 8, !tbaa !101
  %18 = getelementptr inbounds nuw %struct.lua_longjmp, ptr %17, i32 0, i32 1
  %19 = getelementptr inbounds [1 x %struct.__jmp_buf_tag], ptr %18, i64 0, i64 0
  call void @longjmp(ptr noundef %19, i32 noundef 1) #18
  unreachable

20:                                               ; preds = %2
  %21 = load i32, ptr %4, align 4, !tbaa !4
  %22 = trunc i32 %21 to i8
  %23 = load ptr, ptr %3, align 8, !tbaa !11
  %24 = getelementptr inbounds nuw %struct.lua_State, ptr %23, i32 0, i32 3
  store i8 %22, ptr %24, align 2, !tbaa !109
  %25 = load ptr, ptr %3, align 8, !tbaa !11
  %26 = getelementptr inbounds nuw %struct.lua_State, ptr %25, i32 0, i32 6
  %27 = load ptr, ptr %26, align 8, !tbaa !25
  %28 = getelementptr inbounds nuw %struct.global_State, ptr %27, i32 0, i32 19
  %29 = load ptr, ptr %28, align 8, !tbaa !85
  %30 = icmp ne ptr %29, null
  br i1 %30, label %31, label %41

31:                                               ; preds = %20
  %32 = load ptr, ptr %3, align 8, !tbaa !11
  %33 = load i32, ptr %4, align 4, !tbaa !4
  call void @resetstack(ptr noundef %32, i32 noundef %33)
  %34 = load ptr, ptr %3, align 8, !tbaa !11
  %35 = getelementptr inbounds nuw %struct.lua_State, ptr %34, i32 0, i32 6
  %36 = load ptr, ptr %35, align 8, !tbaa !25
  %37 = getelementptr inbounds nuw %struct.global_State, ptr %36, i32 0, i32 19
  %38 = load ptr, ptr %37, align 8, !tbaa !85
  %39 = load ptr, ptr %3, align 8, !tbaa !11
  %40 = call i32 %38(ptr noundef %39)
  br label %41

41:                                               ; preds = %31, %20
  call void @exit(i32 noundef 1) #18
  unreachable
}

; Function Attrs: nounwind uwtable
define internal ptr @luaM_toobig(ptr noundef %0) #0 {
  %2 = alloca ptr, align 8
  store ptr %0, ptr %2, align 8, !tbaa !11
  %3 = load ptr, ptr %2, align 8, !tbaa !11
  call void (ptr, ptr, ...) @luaG_runerror(ptr noundef %3, ptr noundef @.str.5)
  ret ptr null
}

; Function Attrs: nounwind uwtable
define internal ptr @luaM_realloc_(ptr noundef %0, ptr noundef %1, i64 noundef %2, i64 noundef %3) #0 {
  %5 = alloca ptr, align 8
  %6 = alloca ptr, align 8
  %7 = alloca i64, align 8
  %8 = alloca i64, align 8
  %9 = alloca ptr, align 8
  store ptr %0, ptr %5, align 8, !tbaa !11
  store ptr %1, ptr %6, align 8, !tbaa !71
  store i64 %2, ptr %7, align 8, !tbaa !53
  store i64 %3, ptr %8, align 8, !tbaa !53
  call void @llvm.lifetime.start.p0(i64 8, ptr %9) #14
  %10 = load ptr, ptr %5, align 8, !tbaa !11
  %11 = getelementptr inbounds nuw %struct.lua_State, ptr %10, i32 0, i32 6
  %12 = load ptr, ptr %11, align 8, !tbaa !25
  store ptr %12, ptr %9, align 8, !tbaa !72
  %13 = load ptr, ptr %9, align 8, !tbaa !72
  %14 = getelementptr inbounds nuw %struct.global_State, ptr %13, i32 0, i32 1
  %15 = load ptr, ptr %14, align 8, !tbaa !77
  %16 = load ptr, ptr %9, align 8, !tbaa !72
  %17 = getelementptr inbounds nuw %struct.global_State, ptr %16, i32 0, i32 2
  %18 = load ptr, ptr %17, align 8, !tbaa !78
  %19 = load ptr, ptr %6, align 8, !tbaa !71
  %20 = load i64, ptr %7, align 8, !tbaa !53
  %21 = load i64, ptr %8, align 8, !tbaa !53
  %22 = call ptr %15(ptr noundef %18, ptr noundef %19, i64 noundef %20, i64 noundef %21)
  store ptr %22, ptr %6, align 8, !tbaa !71
  %23 = load ptr, ptr %6, align 8, !tbaa !71
  %24 = icmp eq ptr %23, null
  br i1 %24, label %25, label %30

25:                                               ; preds = %4
  %26 = load i64, ptr %8, align 8, !tbaa !53
  %27 = icmp ugt i64 %26, 0
  br i1 %27, label %28, label %30

28:                                               ; preds = %25
  %29 = load ptr, ptr %5, align 8, !tbaa !11
  call void @luaD_throw(ptr noundef %29, i32 noundef 4)
  br label %30

30:                                               ; preds = %28, %25, %4
  %31 = load ptr, ptr %9, align 8, !tbaa !72
  %32 = getelementptr inbounds nuw %struct.global_State, ptr %31, i32 0, i32 14
  %33 = load i64, ptr %32, align 8, !tbaa !36
  %34 = load i64, ptr %7, align 8, !tbaa !53
  %35 = sub i64 %33, %34
  %36 = load i64, ptr %8, align 8, !tbaa !53
  %37 = add i64 %35, %36
  %38 = load ptr, ptr %9, align 8, !tbaa !72
  %39 = getelementptr inbounds nuw %struct.global_State, ptr %38, i32 0, i32 14
  store i64 %37, ptr %39, align 8, !tbaa !36
  %40 = load ptr, ptr %6, align 8, !tbaa !71
  call void @llvm.lifetime.end.p0(i64 8, ptr %9) #14
  ret ptr %40
}

; Function Attrs: nounwind uwtable
define internal void @setarrayvector(ptr noundef %0, ptr noundef %1, i32 noundef %2) #0 {
  %4 = alloca ptr, align 8
  %5 = alloca ptr, align 8
  %6 = alloca i32, align 4
  %7 = alloca i32, align 4
  store ptr %0, ptr %4, align 8, !tbaa !11
  store ptr %1, ptr %5, align 8, !tbaa !97
  store i32 %2, ptr %6, align 4, !tbaa !4
  call void @llvm.lifetime.start.p0(i64 4, ptr %7) #14
  %8 = load i32, ptr %6, align 4, !tbaa !4
  %9 = add nsw i32 %8, 1
  %10 = sext i32 %9 to i64
  %11 = icmp ule i64 %10, 1152921504606846975
  br i1 %11, label %12, label %26

12:                                               ; preds = %3
  %13 = load ptr, ptr %4, align 8, !tbaa !11
  %14 = load ptr, ptr %5, align 8, !tbaa !97
  %15 = getelementptr inbounds nuw %struct.Table, ptr %14, i32 0, i32 6
  %16 = load ptr, ptr %15, align 8, !tbaa !122
  %17 = load ptr, ptr %5, align 8, !tbaa !97
  %18 = getelementptr inbounds nuw %struct.Table, ptr %17, i32 0, i32 10
  %19 = load i32, ptr %18, align 8, !tbaa !123
  %20 = sext i32 %19 to i64
  %21 = mul i64 %20, 16
  %22 = load i32, ptr %6, align 4, !tbaa !4
  %23 = sext i32 %22 to i64
  %24 = mul i64 %23, 16
  %25 = call ptr @luaM_realloc_(ptr noundef %13, ptr noundef %16, i64 noundef %21, i64 noundef %24)
  br label %29

26:                                               ; preds = %3
  %27 = load ptr, ptr %4, align 8, !tbaa !11
  %28 = call ptr @luaM_toobig(ptr noundef %27)
  br label %29

29:                                               ; preds = %26, %12
  %30 = phi ptr [ %25, %12 ], [ %28, %26 ]
  %31 = load ptr, ptr %5, align 8, !tbaa !97
  %32 = getelementptr inbounds nuw %struct.Table, ptr %31, i32 0, i32 6
  store ptr %30, ptr %32, align 8, !tbaa !122
  %33 = load ptr, ptr %5, align 8, !tbaa !97
  %34 = getelementptr inbounds nuw %struct.Table, ptr %33, i32 0, i32 10
  %35 = load i32, ptr %34, align 8, !tbaa !123
  store i32 %35, ptr %7, align 4, !tbaa !4
  br label %36

36:                                               ; preds = %48, %29
  %37 = load i32, ptr %7, align 4, !tbaa !4
  %38 = load i32, ptr %6, align 4, !tbaa !4
  %39 = icmp slt i32 %37, %38
  br i1 %39, label %40, label %51

40:                                               ; preds = %36
  %41 = load ptr, ptr %5, align 8, !tbaa !97
  %42 = getelementptr inbounds nuw %struct.Table, ptr %41, i32 0, i32 6
  %43 = load ptr, ptr %42, align 8, !tbaa !122
  %44 = load i32, ptr %7, align 4, !tbaa !4
  %45 = sext i32 %44 to i64
  %46 = getelementptr inbounds %struct.lua_TValue, ptr %43, i64 %45
  %47 = getelementptr inbounds nuw %struct.lua_TValue, ptr %46, i32 0, i32 1
  store i32 0, ptr %47, align 8, !tbaa !46
  br label %48

48:                                               ; preds = %40
  %49 = load i32, ptr %7, align 4, !tbaa !4
  %50 = add nsw i32 %49, 1
  store i32 %50, ptr %7, align 4, !tbaa !4
  br label %36, !llvm.loop !228

51:                                               ; preds = %36
  %52 = load i32, ptr %6, align 4, !tbaa !4
  %53 = load ptr, ptr %5, align 8, !tbaa !97
  %54 = getelementptr inbounds nuw %struct.Table, ptr %53, i32 0, i32 10
  store i32 %52, ptr %54, align 8, !tbaa !123
  call void @llvm.lifetime.end.p0(i64 4, ptr %7) #14
  ret void
}