; Function Attrs: nounwind uwtable
define internal fastcc void @setarrayvector(ptr noundef %0, ptr noundef captures(none) %1, i32 noundef %2) unnamed_addr #0 {
  %4 = icmp sgt i32 %2, -2
  br i1 %4, label %5, label %48

5:                                                ; preds = %3
  %6 = getelementptr inbounds nuw i8, ptr %1, i64 24
  %7 = load ptr, ptr %6, align 8, !tbaa !95
  %8 = getelementptr inbounds nuw i8, ptr %1, i64 56
  %9 = load i32, ptr %8, align 8, !tbaa !94
  %10 = sext i32 %9 to i64
  %11 = shl nsw i64 %10, 4
  %12 = sext i32 %2 to i64
  %13 = shl nsw i64 %12, 4
  %14 = getelementptr inbounds nuw i8, ptr %0, i64 32
  %15 = load ptr, ptr %14, align 8, !tbaa !29
  %16 = getelementptr inbounds nuw i8, ptr %15, i64 16
  %17 = load ptr, ptr %16, align 8, !tbaa !43
  %18 = getelementptr inbounds nuw i8, ptr %15, i64 24
  %19 = load ptr, ptr %18, align 8, !tbaa !44
  %20 = tail call ptr %17(ptr noundef %19, ptr noundef %7, i64 noundef %11, i64 noundef %13) #35
  %21 = icmp eq ptr %20, null
  %22 = icmp ne i32 %2, 0
  %or.cond.i = and i1 %22, %21
  br i1 %or.cond.i, label %23, label %luaM_realloc_.exit

23:                                               ; preds = %5
  %24 = getelementptr inbounds nuw i8, ptr %0, i64 168
  %25 = load ptr, ptr %24, align 8, !tbaa !32
  %.not.i.i = icmp eq ptr %25, null
  br i1 %.not.i.i, label %29, label %26

26:                                               ; preds = %23
  %27 = getelementptr inbounds nuw i8, ptr %25, i64 208
  store volatile i32 4, ptr %27, align 8, !tbaa !112
  %28 = getelementptr inbounds nuw i8, ptr %25, i64 8
  tail call void @longjmp(ptr noundef nonnull %28, i32 noundef 1) #40
  unreachable

29:                                               ; preds = %23
  %30 = getelementptr inbounds nuw i8, ptr %0, i64 10
  store i8 4, ptr %30, align 2, !tbaa !39
  %31 = load ptr, ptr %14, align 8, !tbaa !29
  %32 = getelementptr inbounds nuw i8, ptr %31, i64 152
  %33 = load ptr, ptr %32, align 8, !tbaa !49
  %.not10.i.i = icmp eq ptr %33, null
  br i1 %.not10.i.i, label %39, label %34

34:                                               ; preds = %29
  tail call fastcc void @resetstack(ptr noundef nonnull %0, i32 noundef 4)
  %35 = load ptr, ptr %14, align 8, !tbaa !29
  %36 = getelementptr inbounds nuw i8, ptr %35, i64 152
  %37 = load ptr, ptr %36, align 8, !tbaa !49
  %38 = tail call i32 %37(ptr noundef nonnull %0) #35
  br label %39

39:                                               ; preds = %34, %29
  tail call void @exit(i32 noundef 1) #41
  unreachable

luaM_realloc_.exit:                               ; preds = %5
  %40 = getelementptr inbounds nuw i8, ptr %15, i64 120
  %41 = load i64, ptr %40, align 8, !tbaa !54
  %42 = sub nsw i64 %13, %11
  %43 = add i64 %42, %41
  store i64 %43, ptr %40, align 8, !tbaa !54
  %44 = getelementptr inbounds nuw i8, ptr %1, i64 24
  store ptr %20, ptr %44, align 8, !tbaa !95
  %45 = getelementptr inbounds nuw i8, ptr %1, i64 56
  %46 = load i32, ptr %45, align 8, !tbaa !94
  %47 = icmp slt i32 %46, %2
  br i1 %47, label %.lr.ph.preheader, label %._crit_edge

48:                                               ; preds = %3
  tail call void (ptr, ptr, ...) @luaG_runerror(ptr noundef %0, ptr noundef nonnull @.str.5)
  unreachable

.lr.ph.preheader:                                 ; preds = %luaM_realloc_.exit
  %49 = sext i32 %46 to i64
  %wide.trip.count = sext i32 %2 to i64
  br label %.lr.ph

.lr.ph:                                           ; preds = %.lr.ph.preheader, %.lr.ph
  %indvars.iv = phi i64 [ %49, %.lr.ph.preheader ], [ %indvars.iv.next, %.lr.ph ]
  %50 = getelementptr inbounds %struct.lua_TValue, ptr %20, i64 %indvars.iv, i32 1
  store i32 0, ptr %50, align 8, !tbaa !69
  %indvars.iv.next = add nsw i64 %indvars.iv, 1
  %exitcond.not = icmp eq i64 %indvars.iv.next, %wide.trip.count
  br i1 %exitcond.not, label %._crit_edge, label %.lr.ph, !llvm.loop !217

._crit_edge:                                      ; preds = %.lr.ph, %luaM_realloc_.exit
  store i32 %2, ptr %45, align 8, !tbaa !94
  ret void
}